target datalayout = "e-m:e-p270:32:32-p271:32:32-p272:64:64-i64:64-i128:128-f80:128-n8:16:32:64-S128"
target triple = "x86_64-pc-linux-gnu"

%struct.hvl_t = type { i64, ptr }

@H5_libterm_g = external global i8, align 1
@H5T_init_g = external global i8, align 1

; Function Attrs: nounwind uwtable
define internal i32 @H5T__vlen_mem_seq_setnull(ptr noundef %0, ptr noundef %1, ptr noundef %2) #0 {
  %4 = alloca ptr, align 8
  %5 = alloca ptr, align 8
  %6 = alloca ptr, align 8
  %7 = alloca %struct.hvl_t, align 8
  store ptr %0, ptr %4, align 8, !tbaa !30
  store ptr %1, ptr %5, align 8, !tbaa !38
  store ptr %2, ptr %6, align 8, !tbaa !38
  call void @llvm.lifetime.start.p0(i64 16, ptr %7) #9
  %8 = load i8, ptr @H5T_init_g, align 1, !tbaa !10, !range !12, !noundef !13
  %9 = trunc i8 %8 to i1
  br i1 %9, label %14, label %10

10:                                               ; preds = %3
  %11 = load i8, ptr @H5_libterm_g, align 1, !tbaa !10, !range !12, !noundef !13
  %12 = trunc i8 %11 to i1
  %13 = xor i1 %12, true
  br label %14

14:                                               ; preds = %10, %3
  %15 = phi i1 [ true, %3 ], [ %13, %10 ]
  %16 = xor i1 %15, true
  %17 = xor i1 %16, true
  %18 = zext i1 %17 to i32
  %19 = sext i32 %18 to i64
  %20 = call i64 @llvm.expect.i64(i64 %19, i64 1)
  %21 = icmp ne i64 %20, 0
  br i1 %21, label %22, label %26

22:                                               ; preds = %14
  %23 = getelementptr inbounds nuw %struct.hvl_t, ptr %7, i32 0, i32 0
  store i64 0, ptr %23, align 8, !tbaa !49
  %24 = getelementptr inbounds nuw %struct.hvl_t, ptr %7, i32 0, i32 1
  store ptr null, ptr %24, align 8, !tbaa !51
  %25 = load ptr, ptr %5, align 8, !tbaa !38
  call void @llvm.memcpy.p0.p0.i64(ptr align 1 %25, ptr align 8 %7, i64 16, i1 false)
  br label %26

26:                                               ; preds = %22, %14
  call void @llvm.lifetime.end.p0(i64 16, ptr %7) #9
  ret i32 0
}